; Function Attrs: nounwind sspstrong uwtable
define hidden range(i32 0, 2) i32 @FLAC__bitreader_read_raw_uint64(ptr noundef captures(none) %0, ptr noundef writeonly captures(none) %1, i32 noundef %2) local_unnamed_addr #9 {
  %4 = alloca i32, align 4
  %5 = alloca i32, align 4
  call void @llvm.lifetime.start.p0(i64 4, ptr nonnull %4) #21
  call void @llvm.lifetime.start.p0(i64 4, ptr nonnull %5) #21
  %6 = icmp ugt i32 %2, 32
  br i1 %6, label %7, label %19

7:                                                ; preds = %3
  %8 = add i32 %2, -32
  %9 = call i32 @FLAC__bitreader_read_raw_uint32(ptr noundef %0, ptr noundef nonnull %4, i32 noundef %8)
  %.not11 = icmp eq i32 %9, 0
  br i1 %.not11, label %25, label %10

10:                                               ; preds = %7
  %11 = call i32 @FLAC__bitreader_read_raw_uint32(ptr noundef %0, ptr noundef nonnull %5, i32 noundef 32)
  %.not12 = icmp eq i32 %11, 0
  br i1 %.not12, label %25, label %12

12:                                               ; preds = %10
  %13 = load i32, ptr %4, align 4, !tbaa !30
  %14 = zext i32 %13 to i64
  %15 = shl nuw i64 %14, 32
  %16 = load i32, ptr %5, align 4, !tbaa !30
  %17 = zext i32 %16 to i64
  %18 = or disjoint i64 %15, %17
  br label %24

19:                                               ; preds = %3
  %20 = call i32 @FLAC__bitreader_read_raw_uint32(ptr noundef %0, ptr noundef nonnull %5, i32 noundef %2)
  %.not = icmp eq i32 %20, 0
  br i1 %.not, label %25, label %21

21:                                               ; preds = %19
  %22 = load i32, ptr %5, align 4, !tbaa !30
  %23 = zext i32 %22 to i64
  br label %24

24:                                               ; preds = %21, %12
  %storemerge = phi i64 [ %23, %21 ], [ %18, %12 ]
  store i64 %storemerge, ptr %1, align 8, !tbaa !21
  br label %25

25:                                               ; preds = %19, %10, %7, %24
  %.0 = phi i32 [ 1, %24 ], [ 0, %7 ], [ 0, %10 ], [ 0, %19 ]
  call void @llvm.lifetime.end.p0(i64 4, ptr nonnull %5) #21
  call void @llvm.lifetime.end.p0(i64 4, ptr nonnull %4) #21
  ret i32 %.0
}